target datalayout = "e-m:e-p270:32:32-p271:32:32-p272:64:64-i64:64-i128:128-f80:128-n8:16:32:64-S128"
target triple = "x86_64-pc-linux-gnu"

; Function Attrs: inlinehint mustprogress uwtable
define internal void @_ZL16gst_sample_unrefP10_GstSample(ptr noundef %0) #5 {
  %2 = alloca ptr, align 8
  store ptr %0, ptr %2, align 8, !tbaa !99
  %3 = load ptr, ptr %2, align 8, !tbaa !99
  call void @gst_mini_object_unref(ptr noundef %3)
  ret void
}

; Function Attrs: inlinehint mustprogress uwtable
define internal void @_ZN2cv4gapi3wip3gstL19GStreamerPtrReleaseI10_GstSampleEEvPT_(ptr noundef %0) #5 {
  %2 = alloca ptr, align 8
  store ptr %0, ptr %2, align 8, !tbaa !99
  %3 = load ptr, ptr %2, align 8, !tbaa !99
  %4 = icmp ne ptr %3, null
  br i1 %4, label %5, label %7

5:                                                ; preds = %1
  %6 = load ptr, ptr %2, align 8, !tbaa !99
  call void @_ZL16gst_sample_unrefP10_GstSample(ptr noundef %6)
  br label %7

7:                                                ; preds = %5, %1
  ret void
}