; Function Attrs: inlinehint mustprogress uwtable
define internal void @_ZN2cv4gapi3wip3gstL19GStreamerPtrReleaseI10_GstSampleEEvPT_(ptr noundef %0) #15 {
  %.not = icmp eq ptr %0, null
  br i1 %.not, label %3, label %2

2:                                                ; preds = %1
  tail call void @gst_mini_object_unref(ptr noundef nonnull %0)
  br label %3

3:                                                ; preds = %2, %1
  ret void
}